target datalayout = "e-m:e-p270:32:32-p271:32:32-p272:64:64-i64:64-i128:128-f80:128-n8:16:32:64-S128"
target triple = "x86_64-pc-linux-gnu"

%"class.ceres::internal::SparseMatrixPreconditionerWrapper" = type { %"class.ceres::internal::TypedPreconditioner", ptr, %"struct.ceres::internal::Preconditioner::Options" }
%"class.ceres::internal::TypedPreconditioner" = type { %"class.ceres::internal::Preconditioner" }
%"class.ceres::internal::Preconditioner" = type { %"class.ceres::internal::LinearOperator" }
%"class.ceres::internal::LinearOperator" = type { ptr }
%"struct.ceres::internal::Preconditioner::Options" = type { i32, i32, i32, i32, i32, i32, %"class.std::vector", i32, i32, i32, ptr }
%"class.std::vector" = type { %"struct.std::_Vector_base" }
%"struct.std::_Vector_base" = type { %"struct.std::_Vector_base<int, std::allocator<int>>::_Vector_impl" }
%"struct.std::_Vector_base<int, std::allocator<int>>::_Vector_impl" = type { %"struct.std::_Vector_base<int, std::allocator<int>>::_Vector_impl_data" }
%"struct.std::_Vector_base<int, std::allocator<int>>::_Vector_impl_data" = type { ptr, ptr, ptr }

; Function Attrs: mustprogress uwtable
define hidden void @_ZNK5ceres8internal33SparseMatrixPreconditionerWrapper26RightMultiplyAndAccumulateEPKdPd(ptr noundef nonnull align 8 dereferenceable(88) %0, ptr noundef %1, ptr noundef %2) unnamed_addr #3 align 2 {
  %4 = alloca ptr, align 8
  %5 = alloca ptr, align 8
  %6 = alloca ptr, align 8
  store ptr %0, ptr %4, align 8, !tbaa !18
  store ptr %1, ptr %5, align 8, !tbaa !56
  store ptr %2, ptr %6, align 8, !tbaa !56
  %7 = load ptr, ptr %4, align 8
  %8 = getelementptr inbounds nuw %"class.ceres::internal::SparseMatrixPreconditionerWrapper", ptr %7, i32 0, i32 1
  %9 = load ptr, ptr %8, align 8, !tbaa !26
  %10 = load ptr, ptr %5, align 8, !tbaa !56
  %11 = load ptr, ptr %6, align 8, !tbaa !56
  %12 = getelementptr inbounds nuw %"class.ceres::internal::SparseMatrixPreconditionerWrapper", ptr %7, i32 0, i32 2
  %13 = getelementptr inbounds nuw %"struct.ceres::internal::Preconditioner::Options", ptr %12, i32 0, i32 10
  %14 = load ptr, ptr %13, align 8, !tbaa !58
  %15 = getelementptr inbounds nuw %"class.ceres::internal::SparseMatrixPreconditionerWrapper", ptr %7, i32 0, i32 2
  %16 = getelementptr inbounds nuw %"struct.ceres::internal::Preconditioner::Options", ptr %15, i32 0, i32 5
  %17 = load i32, ptr %16, align 4, !tbaa !59
  %18 = load ptr, ptr %9, align 8, !tbaa !24
  %19 = getelementptr inbounds ptr, ptr %18, i64 3
  %20 = load ptr, ptr %19, align 8
  call void %20(ptr noundef nonnull align 8 dereferenceable(8) %9, ptr noundef %10, ptr noundef %11, ptr noundef %14, i32 noundef %17)
  ret void
}