; Function Attrs: mustprogress uwtable
define hidden void @_ZNK5ceres8internal33SparseMatrixPreconditionerWrapper26RightMultiplyAndAccumulateEPKdPd(ptr noundef nonnull readonly align 8 captures(none) dereferenceable(88) %0, ptr noundef %1, ptr noundef %2) unnamed_addr #4 align 2 {
  %4 = getelementptr inbounds nuw i8, ptr %0, i64 8
  %5 = load ptr, ptr %4, align 8, !tbaa !6
  %6 = getelementptr inbounds nuw i8, ptr %0, i64 80
  %7 = load ptr, ptr %6, align 8, !tbaa !31
  %8 = getelementptr inbounds nuw i8, ptr %0, i64 36
  %9 = load i32, ptr %8, align 4, !tbaa !32
  %10 = load ptr, ptr %5, align 8, !tbaa !3
  %11 = getelementptr inbounds nuw i8, ptr %10, i64 24
  %12 = load ptr, ptr %11, align 8
  tail call void %12(ptr noundef nonnull align 8 dereferenceable(8) %5, ptr noundef %1, ptr noundef %2, ptr noundef %7, i32 noundef %9)
  ret void
}